; Function Attrs: mustprogress uwtable
define hidden void @_ZN4cvc58internal8TCtxNodeC2ENS0_12NodeTemplateILb1EEEjPKNS0_11TermContextE(ptr noundef nonnull writeonly align 8 captures(none) dereferenceable(24) initializes((0, 12), (16, 24)) %0, ptr noundef readonly captures(none) %1, i32 noundef %2, ptr noundef %3) unnamed_addr #3 align 2 {
  %5 = load ptr, ptr %1, align 8, !tbaa !3
  store ptr %5, ptr %0, align 8, !tbaa !3
  %6 = load i64, ptr %5, align 8
  %7 = lshr i64 %6, 40
  %8 = trunc nuw nsw i64 %7 to i32
  %9 = and i32 %8, 1048575
  %10 = icmp samesign ult i32 %9, 1048574
  br i1 %10, label %11, label %16, !prof !9

11:                                               ; preds = %4
  %12 = add i64 %6, 1099511627776
  %13 = and i64 %12, 1152920405095219200
  %14 = and i64 %6, -1152920405095219201
  %15 = or disjoint i64 %13, %14
  store i64 %15, ptr %5, align 8
  br label %_ZN4cvc58internal12NodeTemplateILb1EEC2ERKS2_.exit

16:                                               ; preds = %4
  %17 = icmp eq i32 %9, 1048574
  br i1 %17, label %18, label %_ZN4cvc58internal12NodeTemplateILb1EEC2ERKS2_.exit, !prof !10

18:                                               ; preds = %16
  %19 = or i64 %6, 1152920405095219200
  store i64 %19, ptr %5, align 8
  tail call void @_ZN4cvc58internal4expr9NodeValue20markRefCountMaxedOutEv(ptr noundef nonnull align 8 dereferenceable(24) %5)
  br label %_ZN4cvc58internal12NodeTemplateILb1EEC2ERKS2_.exit

_ZN4cvc58internal12NodeTemplateILb1EEC2ERKS2_.exit: ; preds = %11, %16, %18
  %20 = getelementptr inbounds nuw i8, ptr %0, i64 8
  store i32 %2, ptr %20, align 8, !tbaa !13
  %21 = getelementptr inbounds nuw i8, ptr %0, i64 16
  store ptr %3, ptr %21, align 8, !tbaa !17
  ret void
}